; Function Attrs: nounwind uwtable
define range(i32 -50, 1) i32 @CVodeGetQuadSensDky1(ptr noundef captures(address_is_null) %0, double noundef %1, i32 noundef %2, i32 noundef %3, ptr noundef %4) local_unnamed_addr #0 {
  %6 = icmp eq ptr %0, null
  br i1 %6, label %7, label %8

7:                                                ; preds = %5
  tail call void (ptr, i32, ptr, ptr, ptr, ...) @cvProcessError(ptr noundef null, i32 noundef -21, ptr noundef nonnull @.str, ptr noundef nonnull @.str.100, ptr noundef nonnull @.str.6)
  br label %79

8:                                                ; preds = %5
  %9 = getelementptr inbounds nuw i8, ptr %0, i64 256
  %10 = load i32, ptr %9, align 8, !tbaa !184
  %.not = icmp eq i32 %10, 1
  br i1 %.not, label %12, label %11

11:                                               ; preds = %8
  tail call void (ptr, i32, ptr, ptr, ptr, ...) @cvProcessError(ptr noundef nonnull %0, i32 noundef -50, ptr noundef nonnull @.str, ptr noundef nonnull @.str.100, ptr noundef nonnull @.str.44)
  br label %79

12:                                               ; preds = %8
  %13 = icmp eq ptr %4, null
  br i1 %13, label %14, label %15

14:                                               ; preds = %12
  tail call void (ptr, i32, ptr, ptr, ptr, ...) @cvProcessError(ptr noundef nonnull %0, i32 noundef -26, ptr noundef nonnull @.str, ptr noundef nonnull @.str.100, ptr noundef nonnull @.str.86)
  br label %79

15:                                               ; preds = %12
  %16 = icmp slt i32 %2, 0
  br i1 %16, label %21, label %17

17:                                               ; preds = %15
  %18 = getelementptr inbounds nuw i8, ptr %0, i64 912
  %19 = load i32, ptr %18, align 8, !tbaa !85
  %20 = icmp sgt i32 %2, %19
  br i1 %20, label %21, label %22

21:                                               ; preds = %17, %15
  tail call void (ptr, i32, ptr, ptr, ptr, ...) @cvProcessError(ptr noundef nonnull %0, i32 noundef -24, ptr noundef nonnull @.str, ptr noundef nonnull @.str.100, ptr noundef nonnull @.str.87)
  br label %79

22:                                               ; preds = %17
  %23 = icmp slt i32 %3, 0
  br i1 %23, label %27, label %24

24:                                               ; preds = %22
  %25 = getelementptr inbounds nuw i8, ptr %0, i64 140
  %26 = load i32, ptr %25, align 4, !tbaa !133
  %.not72 = icmp slt i32 %3, %26
  br i1 %.not72, label %28, label %27

27:                                               ; preds = %24, %22
  tail call void (ptr, i32, ptr, ptr, ptr, ...) @cvProcessError(ptr noundef nonnull %0, i32 noundef -45, ptr noundef nonnull @.str, ptr noundef nonnull @.str.100, ptr noundef nonnull @.str.96)
  br label %79

28:                                               ; preds = %24
  %29 = load double, ptr %0, align 8, !tbaa !19
  %30 = fmul double %29, 1.000000e+02
  %31 = getelementptr inbounds nuw i8, ptr %0, i64 984
  %32 = load double, ptr %31, align 8, !tbaa !84
  %33 = tail call double @SUNRabs(double noundef %32) #13
  %34 = getelementptr inbounds nuw i8, ptr %0, i64 1728
  %35 = load double, ptr %34, align 8, !tbaa !90
  %36 = tail call double @SUNRabs(double noundef %35) #13
  %37 = fadd double %33, %36
  %38 = fmul double %30, %37
  %39 = load double, ptr %34, align 8, !tbaa !90
  %40 = fcmp olt double %39, 0.000000e+00
  %41 = fneg double %38
  %.066 = select i1 %40, double %41, double %38
  %42 = load double, ptr %31, align 8, !tbaa !84
  %43 = fsub double %42, %39
  %44 = fsub double %43, %.066
  %45 = fadd double %42, %.066
  %46 = fsub double %1, %44
  %47 = fsub double %1, %45
  %48 = fmul double %46, %47
  %49 = fcmp ogt double %48, 0.000000e+00
  br i1 %49, label %50, label %51

50:                                               ; preds = %28
  tail call void (ptr, i32, ptr, ptr, ptr, ...) @cvProcessError(ptr noundef nonnull %0, i32 noundef -25, ptr noundef nonnull @.str, ptr noundef nonnull @.str.100, ptr noundef nonnull @.str.88)
  br label %79

51:                                               ; preds = %28
  %52 = fsub double %1, %42
  %53 = getelementptr inbounds nuw i8, ptr %0, i64 944
  %54 = load double, ptr %53, align 8, !tbaa !222
  %55 = fdiv double %52, %54
  %56 = load i32, ptr %18, align 8, !tbaa !85
  %.not7378 = icmp slt i32 %56, %2
  br i1 %.not7378, label %._crit_edge80, label %.preheader.lr.ph

.preheader.lr.ph:                                 ; preds = %51
  %57 = getelementptr inbounds nuw i8, ptr %0, i64 752
  %58 = zext nneg i32 %3 to i64
  %.not74.not75.not = icmp eq i32 %2, 0
  br label %.preheader

.preheader:                                       ; preds = %.preheader.lr.ph, %72
  %.06379 = phi i32 [ %56, %.preheader.lr.ph ], [ %73, %72 ]
  %59 = sub nsw i32 %.06379, %2
  br i1 %.not74.not75.not, label %._crit_edge, label %.lr.ph

.lr.ph:                                           ; preds = %.preheader, %.lr.ph
  %.06477 = phi i32 [ %62, %.lr.ph ], [ %.06379, %.preheader ]
  %.06576 = phi double [ %61, %.lr.ph ], [ 1.000000e+00, %.preheader ]
  %60 = sitofp i32 %.06477 to double
  %61 = fmul double %.06576, %60
  %62 = add nsw i32 %.06477, -1
  %.not74.not = icmp sgt i32 %62, %59
  br i1 %.not74.not, label %.lr.ph, label %._crit_edge, !llvm.loop !374

._crit_edge:                                      ; preds = %.lr.ph, %.preheader
  %.065.lcssa = phi double [ 1.000000e+00, %.preheader ], [ %61, %.lr.ph ]
  %63 = load i32, ptr %18, align 8, !tbaa !85
  %64 = icmp eq i32 %.06379, %63
  %65 = zext nneg i32 %.06379 to i64
  %66 = getelementptr inbounds nuw [13 x ptr], ptr %57, i64 0, i64 %65
  %67 = load ptr, ptr %66, align 8, !tbaa !137
  %68 = getelementptr inbounds nuw ptr, ptr %67, i64 %58
  %69 = load ptr, ptr %68, align 8, !tbaa !46
  br i1 %64, label %70, label %71

70:                                               ; preds = %._crit_edge
  tail call void @N_VScale(double noundef %.065.lcssa, ptr noundef %69, ptr noundef nonnull %4) #13
  br label %72

71:                                               ; preds = %._crit_edge
  tail call void @N_VLinearSum(double noundef %.065.lcssa, ptr noundef %69, double noundef %55, ptr noundef nonnull %4, ptr noundef nonnull %4) #13
  br label %72

72:                                               ; preds = %70, %71
  %73 = add nsw i32 %.06379, -1
  %.not73.not = icmp sgt i32 %.06379, %2
  br i1 %.not73.not, label %.preheader, label %._crit_edge80, !llvm.loop !375

._crit_edge80:                                    ; preds = %72, %51
  %74 = icmp eq i32 %2, 0
  br i1 %74, label %79, label %75

75:                                               ; preds = %._crit_edge80
  %76 = load double, ptr %53, align 8, !tbaa !222
  %77 = sub nsw i32 0, %2
  %78 = tail call double @SUNRpowerI(double noundef %76, i32 noundef %77) #13
  tail call void @N_VScale(double noundef %78, ptr noundef nonnull %4, ptr noundef nonnull %4) #13
  br label %79

79:                                               ; preds = %._crit_edge80, %75, %50, %27, %21, %14, %11, %7
  %.0 = phi i32 [ -21, %7 ], [ -50, %11 ], [ -26, %14 ], [ -24, %21 ], [ -45, %27 ], [ -25, %50 ], [ 0, %75 ], [ 0, %._crit_edge80 ]
  ret i32 %.0
}